ccopy_reg
_reconstructor
p0
(cgoogle.oauth2.credentials
Credentials
p1
c__builtin__
object
p2
Ntp3
Rp4
(dp5
S'_quota_project_id'
p6
NsS'_token_uri'
p7
Vhttps://oauth2.googleapis.com/token
p8
sS'_client_secret'
p9
Vgz1Dcmf8gKVZwNpk0_0hqzfB
p10
sS'_id_token'
p11
NsS'token'
p12
Vya29.a0AfH6SMBWvKozW5Te2yZ-yTpA06fDtP8dR98Gs6bWoEOPoMI6ICy2mggBJhV_oXfwedynk9xpwqJBasB3CGscX2aCbetkvBJmjwH7E2yYnCq6X1asK_LAu3EZkqsgpJFSz3mg9noT9fvItm9RuRfzV1Ugr60bN0XRlUn9
p13
sS'_refresh_token'
p14
V1//0dROIGRl96WtrCgYIARAAGA0SNwF-L9IrrpH-lMglWSfLjSJwDxfDwo6GKnuH2M3fEQme3-4h3Kh7XfI0DLGdjHDStQnguBUul2k
p15
sS'_scopes'
p16
(lp17
S'https://www.googleapis.com/auth/calendar.readonly'
p18
asS'_client_id'
p19
V251409351459-s9vh7pct00kf082jhmjniiv90l9i3vb1.apps.googleusercontent.com
p20
sS'expiry'
p21
cdatetime
datetime
p22
(S'\x07\xe4\t\x1b\x1678\x06\xa8\n'
p23
tp24
Rp25
sb.